{
   supp1
   Memcheck:Param
   write(buf)
   fun:write
   fun:os_write
   fun:ham_log_append_entry
   fun:ham_log_append_prewrite
   fun:_ZN7LogTest18appendPreWriteTestEv
   fun:_ZN7CppUnit10TestCallerI7LogTestE7runTestEv
   fun:_ZNK7CppUnit21TestCaseMethodFunctorclEv
   fun:_ZN7CppUnit16DefaultProtector7protectERKNS_7FunctorERKNS_16ProtectorContextE
   fun:_ZNK7CppUnit14ProtectorChain14ProtectFunctorclEv
   fun:_ZN7CppUnit14ProtectorChain7protectERKNS_7FunctorERKNS_16ProtectorContextE
   fun:_ZN7CppUnit10TestResult7protectERKNS_7FunctorEPNS_4TestERKSs
   fun:_ZN7CppUnit8TestCase3runEPNS_10TestResultE
}

{
   supp2
   Memcheck:Param
   write(buf)
   fun:write
   fun:os_write
   fun:ham_log_append_entry
   fun:ham_log_append_write
   fun:_ZN7LogTest15appendWriteTestEv
   fun:_ZN7CppUnit10TestCallerI7LogTestE7runTestEv
   fun:_ZNK7CppUnit21TestCaseMethodFunctorclEv
   fun:_ZN7CppUnit16DefaultProtector7protectERKNS_7FunctorERKNS_16ProtectorContextE
   fun:_ZNK7CppUnit14ProtectorChain14ProtectFunctorclEv
   fun:_ZN7CppUnit14ProtectorChain7protectERKNS_7FunctorERKNS_16ProtectorContextE
   fun:_ZN7CppUnit10TestResult7protectERKNS_7FunctorEPNS_4TestERKSs
   fun:_ZN7CppUnit8TestCase3runEPNS_10TestResultE
}

{
   supp3
   Memcheck:Cond
   fun:longest_match
   fun:deflate_slow
   fun:deflate
   fun:compress2
   fun:__zlib_before_write_cb
   fun:__record_filters_before_write
   fun:ham_insert
   fun:_ZN10FilterTest14zlibFilterTestEv
   fun:_ZN7CppUnit10TestCallerI10FilterTestE7runTestEv
   fun:_ZNK7CppUnit21TestCaseMethodFunctorclEv
   fun:_ZN7CppUnit16DefaultProtector7protectERKNS_7FunctorERKNS_16ProtectorContextE
   fun:_ZNK7CppUnit14ProtectorChain14ProtectFunctorclEv
}

{
   leak_gnutls1
   Memcheck:Leak
   fun:malloc
   obj:/lib/x86_64-linux-gnu/libgcrypt.so.11.6.0
   obj:/lib/x86_64-linux-gnu/libgcrypt.so.11.6.0
   obj:/lib/x86_64-linux-gnu/libgcrypt.so.11.6.0
   obj:/lib/x86_64-linux-gnu/libgcrypt.so.11.6.0
   obj:/lib/x86_64-linux-gnu/libgcrypt.so.11.6.0
   obj:/lib/x86_64-linux-gnu/libgcrypt.so.11.6.0
   obj:/lib/x86_64-linux-gnu/libgcrypt.so.11.6.0
   fun:gnutls_global_init
   fun:Curl_gtls_init
   fun:curl_global_init
   fun:curl_easy_init
}

{
   leak_gnutls2
   Memcheck:Leak
   fun:malloc
   obj:/lib/x86_64-linux-gnu/libgcrypt.so.11.6.0
   obj:/lib/x86_64-linux-gnu/libgcrypt.so.11.6.0
   obj:/lib/x86_64-linux-gnu/libgcrypt.so.11.6.0
   obj:/lib/x86_64-linux-gnu/libgcrypt.so.11.6.0
   obj:/lib/x86_64-linux-gnu/libgcrypt.so.11.6.0
   obj:/lib/x86_64-linux-gnu/libgcrypt.so.11.6.0
   obj:/usr/lib/x86_64-linux-gnu/libgnutls.so.26.14.12
   obj:/usr/lib/x86_64-linux-gnu/libgnutls.so.26.14.12
   fun:gnutls_global_init
   fun:Curl_gtls_init
   fun:curl_global_init
}

{
   leak_gnutls3
   Memcheck:Leak
   fun:malloc
   obj:/lib/x86_64-linux-gnu/libgcrypt.so.11.6.0
   obj:/lib/x86_64-linux-gnu/libgcrypt.so.11.6.0
   obj:/lib/x86_64-linux-gnu/libgcrypt.so.11.6.0
   obj:/lib/x86_64-linux-gnu/libgcrypt.so.11.6.0
   obj:/lib/x86_64-linux-gnu/libgcrypt.so.11.6.0
   obj:/lib/x86_64-linux-gnu/libgcrypt.so.11.6.0
   obj:/usr/lib/x86_64-linux-gnu/libgnutls.so.26.14.12
   obj:/usr/lib/x86_64-linux-gnu/libgnutls.so.26.14.12
   fun:gnutls_global_init
   fun:Curl_gtls_init
   fun:curl_global_init
}

{
   leak_gnutls4
   Memcheck:Leak
   fun:malloc
   obj:/lib/x86_64-linux-gnu/libgcrypt.so.11.6.0
   obj:/lib/x86_64-linux-gnu/libgcrypt.so.11.6.0
   obj:/lib/x86_64-linux-gnu/libgcrypt.so.11.6.0
   obj:/lib/x86_64-linux-gnu/libgcrypt.so.11.6.0
   obj:/lib/x86_64-linux-gnu/libgcrypt.so.11.6.0
   obj:/lib/x86_64-linux-gnu/libgcrypt.so.11.6.0
   obj:/lib/x86_64-linux-gnu/libgcrypt.so.11.6.0
   fun:gnutls_global_init
   fun:Curl_gtls_init
   fun:curl_global_init
   fun:curl_easy_init
}

{
   leak_gnutls5
   Memcheck:Leak
   fun:malloc
   obj:/lib/x86_64-linux-gnu/libgcrypt.so.11.6.0
   obj:/lib/x86_64-linux-gnu/libgcrypt.so.11.6.0
   obj:/lib/x86_64-linux-gnu/libgcrypt.so.11.6.0
   obj:/lib/x86_64-linux-gnu/libgcrypt.so.11.6.0
   obj:/lib/x86_64-linux-gnu/libgcrypt.so.11.6.0
   obj:/lib/x86_64-linux-gnu/libgcrypt.so.11.6.0
   obj:/lib/x86_64-linux-gnu/libgcrypt.so.11.6.0
   fun:gnutls_global_init
   fun:Curl_gtls_init
   fun:curl_global_init
   fun:curl_easy_init
}

{
   leak_bfc1
   Memcheck:Leak
   fun:_Znwm
   fun:_ZN3bfc7fixture11catch_valueEim
   fun:_ZN16HighLevelTxnTest4findEP9ham_txn_tPKcS3_
   fun:_ZN16HighLevelTxnTest15getKeyCountTestEv
   fun:_ZN3bfc7fixture11FUT_invokerEPNS_10testrunnerEMS0_FvvEPKcNS_11bfc_state_tERNS_5errorE
   fun:_ZN3bfc10testrunner10cpp_eh_runEPS0_PNS_7fixtureEMS2_FvvEPKcNS_11bfc_state_tERNS_5errorE
   fun:_ZN3bfc10testrunner12exec_testfunEPS0_PNS_7fixtureEMS2_FvvEPKcNS_11bfc_state_tERNS_5errorE
   fun:_ZN3bfc10testrunner18exec_a_single_testEPNS_7fixtureEPKNS_4testE
   fun:_ZN3bfc10testrunner3runEPNS_7fixtureEPKNS_4testENS_23bfc_error_report_mode_tE
   fun:_ZN3bfc10testrunner3runERKSsS2_S2_S2_bbb
   fun:_ZN3bfc10testrunner3runEPKcS2_b
   fun:main
}

{
   leak_bfc2
   Memcheck:Leak
   fun:_Znwm
   fun:_ZN3bfc7fixture11catch_valueEim
   fun:_ZN16HighLevelTxnTest4findEP9ham_txn_tPKcS3_
   fun:_ZN16HighLevelTxnTest15getKeyCountTestEv
   fun:_ZN3bfc7fixture11FUT_invokerEPNS_10testrunnerEMS0_FvvEPKcNS_11bfc_state_tERNS_5errorE
   fun:_ZN3bfc10testrunner10cpp_eh_runEPS0_PNS_7fixtureEMS2_FvvEPKcNS_11bfc_state_tERNS_5errorE
   fun:_ZN3bfc10testrunner12exec_testfunEPS0_PNS_7fixtureEMS2_FvvEPKcNS_11bfc_state_tERNS_5errorE
   fun:_ZN3bfc10testrunner18exec_a_single_testEPNS_7fixtureEPKNS_4testE
   fun:_ZN3bfc10testrunner3runEPNS_7fixtureEPKNS_4testENS_23bfc_error_report_mode_tE
   fun:_ZN3bfc10testrunner3runERKSsS2_S2_S2_bbb
   fun:_ZN3bfc10testrunner3runEPKcS2_b
   fun:main
}

{
   leak_bfc3
   Memcheck:Leak
   fun:_Znwm
   fun:_ZN3bfc7fixture11catch_valueEim
   fun:_ZN16HighLevelTxnTest4findEP9ham_txn_tPKcS3_
   fun:_ZN16HighLevelTxnTest15getKeyCountTestEv
   fun:_ZN3bfc7fixture11FUT_invokerEPNS_10testrunnerEMS0_FvvEPKcNS_11bfc_state_tERNS_5errorE
   fun:_ZN3bfc10testrunner10cpp_eh_runEPS0_PNS_7fixtureEMS2_FvvEPKcNS_11bfc_state_tERNS_5errorE
   fun:_ZN3bfc10testrunner12exec_testfunEPS0_PNS_7fixtureEMS2_FvvEPKcNS_11bfc_state_tERNS_5errorE
   fun:_ZN3bfc10testrunner18exec_a_single_testEPNS_7fixtureEPKNS_4testE
   fun:_ZN3bfc10testrunner3runEPNS_7fixtureEPKNS_4testENS_23bfc_error_report_mode_tE
   fun:_ZN3bfc10testrunner3runERKSsS2_S2_S2_bbb
   fun:_ZN3bfc10testrunner3runEPKcS2_b
   fun:main
}

